(lp0
S'NYSE:AA,NYSE:LYB,NYSE:AXP,NYSE:VZ,NASDAQ:AVGO,NYSE:BA,NYSE:CAT,NYSE:JPM,NYSE:CVX,NYSE:KO,NYSE:ABBV,NYSE:DIS,NYSE:DD,NYSE:XOM,NYSE:PSX,NYSE:GE,NYSE:HPQ,NYSE:HD,NYSE:IBM,NYSE:JNJ,NYSE:MCD,NYSE:MRK,NYSE:MMM,NYSE:BAC,NYSE:PFE,NYSE:PG,NYSE:T,NYSE:TRV,NYSE:UTX,NASDAQ:ADI,NYSE:WMT,NASDAQ:CSCO,NASDAQ:INTC,NYSE:GM,NASDAQ:MSFT,NYSE:DG,NYSE:KMI,NYSE:C,NYSE:NLSN,NYSE:AIG,NYSE:HON,NYSE:MO,NYSE:HCA,NYSE:UA,NYSE:IP,NYSE:ABT,NYSE:AFL,NYSE:APD,NYSE:ARG,NYSE:RCL,NYSE:AEP,NYSE:HES,NYSE:APC,NYSE:AON,NYSE:APA,NYSE:ADM,NYSE:GAS,NASDAQ:ADP,NYSE:AZO,NYSE:AVY,NYSE:BHI,NYSE:BLL,NYSE:BK,NYSE:BCR,NYSE:BAX,NYSE:BDX,NYSE:BRK/B,NYSE:BBY,NYSE:HRB,NYSE:BSX,NYSE:BMY,NYSE:BF/B,NYSE:COG,NYSE:CPB,NYSE:KSU,NYSE:CCL,NASDAQ:QRVO,NYSE:CTL,NYSE:CB,NYSE:CI,NASDAQ:FTR,NYSE:CLX,NYSE:CMS,NYSE:CCE,NYSE:CL,NYSE:CMA,NASDAQ:CA,NYSE:CSC,NYSE:CAG,NYSE:ED,NYSE:SLG,NYSE:GLW,NYSE:CSX,NYSE:CMI,NYSE:DHR,NYSE:TGT,NYSE:DE,NYSE:D,NYSE:DOV,NYSE:DOW,NYSE:DUK,NYSE:ETN,NYSE:ECL,NYSE:PKI,NYSE:EMC,NYSE:EMR,NYSE:EOG,NYSE:ETR,NYSE:EFX,NYSE:EQT,NYSE:XL,NYSE:FDX,NYSE:M,NYSE:FMC,NYSE:F,NYSE:NEE,NYSE:BEN,NYSE:FCX,NYSE:TGNA,NYSE:GPS,NYSE:GD,NYSE:GIS,NYSE:GPC,NYSE:GWW,NYSE:HAL,NYSE:HOG,NYSE:HAR,NYSE:JOY,NYSE:HRS,NYSE:HCP,NYSE:HP,NYSE:HSY,NYSE:HRL,NYSE:HOT,NASDAQ:MDLZ,NYSE:CNP,NYSE:HUM,NYSE:ITW,NYSE:IR,NYSE:IPG,NYSE:IFF,NYSE:JEC,NYSE:JCI,NYSE:HBI,NYSE:K,NYSE:PRGO,NYSE:KMB,NYSE:KIM,NYSE:KSS,NYSE:ORCL,NYSE:KR,NYSE:LM,NYSE:LEG,NYSE:LEN,NYSE:LUK,NYSE:LLY,NYSE:LB,NYSE:LNC,NYSE:L,NYSE:LOW,NYSE:HST,NYSE:MMC,NYSE:MAS,NASDAQ:MAT,NYSE:MHFI,NYSE:MDT,NYSE:CVS,NASDAQ:MU,NYSE:MSI,NYSE:MUR,NASDAQ:MYL,NYSE:LH,NYSE:THC,NYSE:NWL,NYSE:NEM,NASDAQ:FOXA,NYSE:NKE,NYSE:NI,NYSE:NBL,NYSE:NSC,NYSE:ES,NYSE:NOC,NYSE:WFC,NYSE:NUE,NYSE:PVH,NYSE:OXY,NYSE:OMC,NYSE:OKE,NYSE:OI,NYSE:PCG,NYSE:PH,NYSE:PPL,NYSE:PEP,NYSE:EXC,NYSE:COP,NYSE:PHM,NYSE:PNW,NYSE:PBI,NYSE:PCL'
p1
aS'NYSE:PNC,NYSE:PPG,NYSE:PX,NYSE:PCP,NYSE:PGR,NYSE:PEG,NYSE:RTN,NYSE:RHI,NYSE:R,NYSE:SCG,NYSE:EIX,NYSE:SLB,NYSE:SCHW,NYSE:SHW,NYSE:SJM,NYSE:SNA,NYSE:AME,NYSE:SO,NYSE:BBT,NYSE:LUV,NYSE:SWN,NYSE:SWK,NYSE:PSA,NYSE:STI,NYSE:SYY,NYSE:TE,NYSE:TSO,NASDAQ:TXN,NYSE:TXT,NYSE:TMO,NYSE:TIF,NYSE:TJX,NYSE:TMK,NYSE:TSS,NYSE:TYC,NYSE:UNP,NYSE:UNH,NYSE:UNM,NYSE:MRO,NYSE:VAR,NYSE:VTR,NYSE:VFC,NYSE:VNO,NYSE:ADT,NYSE:VMC,NYSE:WY,NYSE:WHR,NYSE:WMB,NYSE:WEC,NYSE:XRX,NASDAQ:ADBE,NYSE:AES,NASDAQ:AMGN,NASDAQ:AAPL,NASDAQ:ADSK,NASDAQ:CTAS,NASDAQ:CMCSA,NYSE:TAP,NASDAQ:KLAC,NASDAQ:MAR,NYSE:MKC,NYSE:JWN,NASDAQ:PCAR,NASDAQ:COST,NASDAQ:SIAL,NYSE:STJ,NYSE:SYK,NYSE:TSN,NASDAQ:ALTR,NASDAQ:AMAT,NYSE:TWX,NASDAQ:BBBY,NASDAQ:AAL,NYSE:CAH,NASDAQ:CELG,NASDAQ:CERN,NASDAQ:CINF,NYSE:CVC,NYSE:DHI,NYSE:FLS,NASDAQ:EA,NASDAQ:ESRX,NASDAQ:EXPD,NASDAQ:FAST,NYSE:MTB,NASDAQ:FISV,NASDAQ:FITB,NASDAQ:GILD,NASDAQ:HAS,NASDAQ:HBAN,NYSE:HCN,NASDAQ:BIIB,NASDAQ:LLTC,NYSE:RRC,NASDAQ:NTRS,NASDAQ:PAYX,NASDAQ:PBCT,NASDAQ:PDCO,NYSE:PLL,NASDAQ:QCOM,NYSE:ROP,NASDAQ:ROST,NYSE:AN,NASDAQ:SBUX,NYSE:KEY,NASDAQ:SPLS,NYSE:STT,NYSE:USB,NASDAQ:SYMC,NASDAQ:TROW,NYSE:WM,NYSE:CBS,NYSE:AGN,NASDAQ:WFM,NYSE:STZ,NASDAQ:XLNX,NASDAQ:XRAY,NASDAQ:ZION,NYSE:IVZ,NASDAQ:INTU,NYSE:MS,NASDAQ:MCHP,NYSE:ACE,NYSE:CHK,NASDAQ:ORLY,NYSE:ALL,NASDAQ:FLIR,NYSE:EQR,NYSE:BWA,NYSE:NFX,NASDAQ:URBN,NYSE:SPG,NYSE:EMN,NYSE:AVB,NYSE:PRU,NYSE:UPS,NYSE:AIV,NASDAQ:WBA,NYSE:MCK,NYSE:LMT,NYSE:ABC,NYSE:CAM,NYSE:COF,NYSE:WAT,NASDAQ:DLTR,NYSE:DRI,NASDAQ:SNDK,NYSE:DO,NASDAQ:NTAP,NASDAQ:CTXS,NASDAQ:GT,NYSE:DVA,NYSE:HIG,NYSE:IRM,NYSE:EL,NASDAQ:YHOO,NYSE:PFG,NASDAQ:SRCL,NYSE:UHS,NASDAQ:ETFC,NASDAQ:SWKS,NYSE:NOV,NYSE:DGX,NYSE:ROK,NASDAQ:KHC,NYSE:AMT,NASDAQ:REGN,NASDAQ:AMZN,NYSE:RL,NYSE:BXP,NYSE:APH,NYSE:PXD,NYSE:VLO,NYSE:LLL,NYSE:WU,NASDAQ:CHRW,NYSE:ACN,NYSE:YUM,NYSE:PLD,NYSE:FE,NASDAQ:VRSN,NYSE:PWR,NYSE:AEE,NASDAQ:HSIC,NASDAQ:BRCM,NASDAQ:NVDA,NYSE:SEE,NASDAQ:CTSH,NASDAQ:ISRG,NYSE:CNX,NYSE:AET,NYSE:AMG,NYSE:RSG,NASDAQ:EBAY,NYSE:GS,NYSE:SRE,NYSE:MCO,NASDAQ:PCLN,NASDAQ:FFIV,NASDAQ:AKAM'
p2
aS'NYSE:RAI,NYSE:DVN,NASDAQ:GOOGL,NYSE:RHT,NASDAQ:HCBK,NASDAQ:NFLX,NYSE:ALLE,NYSE:A,NYSE:ANTM,NASDAQ:CME,NYSE:JNPR,NYSE:BLK,NYSE:DTE,NASDAQ:NDAQ,NYSE:PM,NYSE:TWC,NYSE:CRM,NYSE:MET,NYSE:MON,NYSE:COH,NYSE:FLR,NYSE:DNB,NYSE:EW,NYSE:AMP,NYSE:XEL,NYSE:COL,NYSE:FTI,NYSE:ZBH,NYSE:CBG,NYSE:SIG,NYSE:MA,NYSE:GME,NYSE:KMX,NYSE:ICE,NYSE:FIS,NYSE:CMG,NYSE:POM,NASDAQ:WYNN,NYSE:HSP,NYSE:AIZ,NYSE:NRG,NYSE:GNW,NASDAQ:MNST,NYSE:RF,NYSE:TDC,NYSE:MOS,NASDAQ:EXPE,NASDAQ:DISCA,NYSE:CF,NASDAQ:VIAB,NASDAQ:GOOG,NYSE:WYN,NYSE:SE,NASDAQ:FSLR,NYSE:ESV,NYSE:MJN,NYSE:TEL,NYSE:DFS,NASDAQ:TRIP,NYSE:DPS,NYSE:SNI,NYSE:V,NYSE:XYL,NYSE:MPC,NASDAQ:TSCO,NYSE:LVLT,NYSE:RIG,NYSE:ESS,NYSE:GGP,NYSE:O,NASDAQ:STX,NYSE:WRK,NASDAQ:WDC,NASDAQ:FOSL,NASDAQ:JBHT,NASDAQ:LRCX,NYSE:MHK,NYSE:PNR,NASDAQ:VRTX,NASDAQ:FB,NYSE:URI,NASDAQ:NAVI,NYSE:DAL,NYSE:BXLT,NYSE:MNK,NASDAQ:GMCR,NYSE:MAC,NYSE:MLM,NASDAQ:PYPL,NASDAQ:ALXN,NYSE:CPGX,NASDAQ:ENDP,NASDAQ:NWSA,NYSE:CCI,NYSE:DLPH,NYSE:AAP,NYSE:KORS,NYSE:ADS,NASDAQ:GRMN,NYSE:XEC,NYSE:ZTS,NASDAQ:EQIX,NASDAQ:DISCK'
p3
a.